; Function Attrs: nounwind uwtable
define ptr @EVP_CIPHER_CTX_settable_params(ptr noundef readonly captures(address_is_null) %0) local_unnamed_addr #0 {
  %.not = icmp eq ptr %0, null
  br i1 %.not, label %15, label %2

2:                                                ; preds = %1
  %3 = load ptr, ptr %0, align 8, !tbaa !3
  %4 = getelementptr inbounds nuw i8, ptr %3, i64 272
  %5 = load ptr, ptr %4, align 8, !tbaa !72
  %.not8 = icmp eq ptr %5, null
  br i1 %.not8, label %15, label %6

6:                                                ; preds = %2
  %7 = tail call ptr @EVP_CIPHER_get0_provider(ptr noundef nonnull %3) #10
  %8 = tail call ptr @ossl_provider_ctx(ptr noundef %7) #10
  %9 = load ptr, ptr %0, align 8, !tbaa !3
  %10 = getelementptr inbounds nuw i8, ptr %9, i64 272
  %11 = load ptr, ptr %10, align 8, !tbaa !72
  %12 = getelementptr inbounds nuw i8, ptr %0, i64 176
  %13 = load ptr, ptr %12, align 8, !tbaa !17
  %14 = tail call ptr %11(ptr noundef %13, ptr noundef %8) #10
  br label %15

15:                                               ; preds = %1, %2, %6
  %.0 = phi ptr [ %14, %6 ], [ null, %2 ], [ null, %1 ]
  ret ptr %.0
}